target datalayout = "e-m:e-p270:32:32-p271:32:32-p272:64:64-i64:64-i128:128-f80:128-n8:16:32:64-S128"
target triple = "x86_64-pc-linux-gnu"

%struct._asn1_ctx_t = type { i32, i32, i8, ptr, ptr, ptr, ptr, ptr, %struct.anon.0, %struct.anon.3, %struct.anon.4, ptr }
%struct.anon.0 = type { i32, i8, i8, i8, ptr, ptr, i32, i32, ptr, ptr, ptr, %union.anon }
%union.anon = type { %struct.anon.1 }
%struct.anon.1 = type { ptr }
%struct.anon.3 = type { ptr, ptr, ptr }
%struct.anon.4 = type { i32, i8, ptr, i32, i32, ptr, ptr, ptr, %union.anon.5 }
%union.anon.5 = type { %struct.anon.6 }
%struct.anon.6 = type { ptr }

@.str.2094 = private unnamed_addr constant [6 x i8] c" (%s)\00", align 1

; Function Attrs: null_pointer_is_valid sspstrong uwtable
define internal i32 @dissect_s1ap_T_startTimestamp(ptr noundef %0, i32 noundef %1, ptr noundef %2, ptr noundef %3, i32 noundef %4) #0 {
  %6 = alloca ptr, align 8
  %7 = alloca i32, align 4
  %8 = alloca ptr, align 8
  %9 = alloca ptr, align 8
  %10 = alloca i32, align 4
  %11 = alloca ptr, align 8
  store ptr %0, ptr %6, align 8
  store i32 %1, ptr %7, align 4
  store ptr %2, ptr %8, align 8
  store ptr %3, ptr %9, align 8
  store i32 %4, ptr %10, align 4
  call void @llvm.lifetime.start.p0(i64 8, ptr %11) #8
  store ptr null, ptr %11, align 8
  %12 = load ptr, ptr %6, align 8
  %13 = load i32, ptr %7, align 4
  %14 = load ptr, ptr %8, align 8
  %15 = load ptr, ptr %9, align 8
  %16 = load i32, ptr %10, align 4
  %17 = call i32 @dissect_per_octet_string(ptr noundef %12, i32 noundef %13, ptr noundef %14, ptr noundef %15, i32 noundef %16, i32 noundef 4, i32 noundef 4, i1 noundef zeroext false, ptr noundef %11)
  store i32 %17, ptr %7, align 4
  %18 = load ptr, ptr %11, align 8
  %19 = icmp ne ptr %18, null
  br i1 %19, label %20, label %26

20:                                               ; preds = %5
  %21 = load ptr, ptr %8, align 8
  %22 = getelementptr inbounds nuw %struct._asn1_ctx_t, ptr %21, i32 0, i32 4
  %23 = load ptr, ptr %22, align 8
  %24 = load ptr, ptr %11, align 8
  %25 = call ptr @tvb_ntp_fmt_ts_sec(ptr noundef %24, i32 noundef 0)
  call void (ptr, ptr, ...) @proto_item_append_text(ptr noundef %23, ptr noundef @.str.2094, ptr noundef %25)
  br label %26

26:                                               ; preds = %20, %5
  %27 = load i32, ptr %7, align 4
  call void @llvm.lifetime.end.p0(i64 8, ptr %11) #8
  ret i32 %27
}